; Function Attrs: mustprogress nofree norecurse nosync nounwind willreturn memory(readwrite, inaccessiblemem: none) uwtable
define internal noundef i32 @fs(double %0, ptr noundef readonly captures(none) %1, ptr noundef readonly captures(none) %2, ptr noundef readonly captures(none) %3) #4 {
  %5 = load double, ptr %3, align 8, !tbaa !11
  %6 = load ptr, ptr %1, align 8, !tbaa !15
  %7 = getelementptr inbounds nuw i8, ptr %6, i64 16
  %8 = load ptr, ptr %7, align 8, !tbaa !18
  %9 = load double, ptr %8, align 8, !tbaa !11
  %10 = getelementptr inbounds nuw i8, ptr %8, i64 8
  %11 = load double, ptr %10, align 8, !tbaa !11
  %12 = getelementptr inbounds nuw i8, ptr %8, i64 16
  %13 = load double, ptr %12, align 8, !tbaa !11
  %14 = fadd double %13, 1.000000e+00
  %15 = fneg double %14
  %16 = tail call double @llvm.fmuladd.f64(double %15, double %9, double %5)
  %17 = fmul double %9, %11
  %18 = tail call double @llvm.fmuladd.f64(double %17, double %9, double %16)
  %19 = load ptr, ptr %2, align 8, !tbaa !15
  %20 = getelementptr inbounds nuw i8, ptr %19, i64 16
  %21 = load ptr, ptr %20, align 8, !tbaa !18
  store double %18, ptr %21, align 8, !tbaa !11
  %22 = fneg double %9
  %23 = fmul double %17, %22
  %24 = tail call double @llvm.fmuladd.f64(double %13, double %9, double %23)
  %25 = getelementptr inbounds nuw i8, ptr %21, i64 8
  store double %24, ptr %25, align 8, !tbaa !11
  %26 = fneg double %13
  %27 = fmul double %9, %26
  %28 = getelementptr inbounds nuw i8, ptr %21, i64 16
  store double %27, ptr %28, align 8, !tbaa !11
  ret i32 0
}